; Function Attrs: mustprogress uwtable
define dso_local void @_ZNKR7doctest6String6substrEjj(ptr dead_on_unwind noalias writable writeonly sret(%"class.doctest::String") align 8 captures(none) initializes((23, 24)) %0, ptr noundef nonnull readonly align 8 captures(none) dereferenceable(24) %1, i32 noundef %2, i32 noundef %3) local_unnamed_addr #8 align 2 {
  %5 = getelementptr inbounds nuw i8, ptr %1, i64 23
  %6 = load i8, ptr %5, align 1, !tbaa !38
  %7 = and i8 %6, 31
  %8 = zext nneg i8 %7 to i32
  %9 = sub nsw i32 23, %8
  %10 = getelementptr inbounds nuw i8, ptr %1, i64 8
  %11 = load i32, ptr %10, align 8
  %12 = icmp slt i8 %6, 0
  %.0.i = select i1 %12, i32 %11, i32 %9
  %13 = xor i32 %2, -1
  %14 = add i32 %.0.i, %13
  %.sroa.speculated = tail call i32 @llvm.umin.i32(i32 %14, i32 %3)
  %15 = load ptr, ptr %1, align 8
  %16 = icmp ult i32 %.sroa.speculated, 24
  br i1 %16, label %17, label %23

17:                                               ; preds = %4
  %18 = zext nneg i32 %.sroa.speculated to i64
  %19 = getelementptr inbounds nuw [24 x i8], ptr %0, i64 0, i64 %18
  store i8 0, ptr %19, align 1, !tbaa !38
  %20 = trunc nuw i32 %.sroa.speculated to i8
  %21 = sub nuw nsw i8 23, %20
  %22 = getelementptr inbounds nuw i8, ptr %0, i64 23
  store i8 %21, ptr %22, align 1, !tbaa !38
  br label %_ZN7doctest6StringC2EPKcj.exit

23:                                               ; preds = %4
  %24 = getelementptr inbounds nuw i8, ptr %0, i64 23
  store i8 -128, ptr %24, align 1, !tbaa !38
  %25 = getelementptr inbounds nuw i8, ptr %0, i64 8
  store i32 %.sroa.speculated, ptr %25, align 8, !tbaa !38
  %26 = add i32 %.sroa.speculated, 1
  %27 = getelementptr inbounds nuw i8, ptr %0, i64 12
  store i32 %26, ptr %27, align 4, !tbaa !38
  %28 = zext i32 %26 to i64
  %29 = tail call noalias noundef nonnull ptr @_Znam(i64 noundef %28) #51
  store ptr %29, ptr %0, align 8, !tbaa !38
  %30 = zext i32 %.sroa.speculated to i64
  %31 = getelementptr inbounds nuw i8, ptr %29, i64 %30
  store i8 0, ptr %31, align 1, !tbaa !38
  br label %_ZN7doctest6StringC2EPKcj.exit

_ZN7doctest6StringC2EPKcj.exit:                   ; preds = %17, %23
  %.pre-phi.i = phi i64 [ %18, %17 ], [ %30, %23 ]
  %.0.i.i2 = phi ptr [ %0, %17 ], [ %29, %23 ]
  %.0.i.i = select i1 %12, ptr %15, ptr %1
  %32 = zext i32 %2 to i64
  %33 = getelementptr inbounds nuw i8, ptr %.0.i.i, i64 %32
  tail call void @llvm.memcpy.p0.p0.i64(ptr nonnull align 1 %.0.i.i2, ptr readonly align 1 %33, i64 %.pre-phi.i, i1 false)
  ret void
}